; Function Attrs: nounwind uwtable
define ptr @l_Lean_Parser_addParser(ptr noundef %0, ptr noundef %1, ptr noundef %2, i8 noundef zeroext %3, ptr noundef %4, ptr noundef %5) local_unnamed_addr #1 {
  %7 = icmp eq i8 %3, 0
  br i1 %7, label %8, label %10

8:                                                ; preds = %6
  %9 = tail call ptr @l_Lean_Parser_addTrailingParser(ptr noundef %0, ptr noundef %1, ptr noundef %2, ptr noundef %4, ptr noundef %5)
  br label %12

10:                                               ; preds = %6
  %11 = tail call ptr @l_Lean_Parser_addLeadingParser(ptr noundef %0, ptr noundef %1, ptr noundef %2, ptr noundef %4, ptr noundef %5)
  br label %12

12:                                               ; preds = %10, %8
  %.0 = phi ptr [ %9, %8 ], [ %11, %10 ]
  ret ptr %.0
}